target datalayout = "e-m:e-p270:32:32-p271:32:32-p272:64:64-i64:64-i128:128-f80:128-n8:16:32:64-S128"
target triple = "x86_64-pc-linux-gnu"

%struct.pointf_s = type { double, double }
%struct.GVJ_s = type { ptr, ptr, ptr, ptr, ptr, ptr, i32, ptr, ptr, ptr, ptr, i64, i64, ptr, i32, %struct.gvplugin_active_render_s, %struct.gvplugin_active_device_s, %struct.gvplugin_active_loadimage_t, ptr, %struct.pointf_s, i8, ptr, i32, ptr, i8, ptr, i32, i32, i32, %struct.point, %struct.point, %struct.point, %struct.point, %struct.point, i32, %struct.boxf, %struct.pointf_s, %struct.boxf, %struct.boxf, %struct.pointf_s, %struct.pointf_s, double, i32, %struct.pointf_s, %struct.boxf, %struct.pointf_s, %struct.pointf_s, i32, i32, %struct.box, %struct.box, %struct.pointf_s, %struct.pointf_s, %struct.pointf_s, i8, i8, i8, i8, i8, i8, %struct.pointf_s, %struct.pointf_s, ptr, ptr, ptr, ptr, ptr, ptr, i64, ptr }
%struct.gvplugin_active_render_s = type { ptr, i32, ptr, ptr }
%struct.gvplugin_active_device_s = type { ptr, i32, ptr, ptr }
%struct.gvplugin_active_loadimage_t = type { ptr, i32, ptr }
%struct.point = type { i32, i32 }
%struct.boxf = type { %struct.pointf_s, %struct.pointf_s }
%struct.box = type { %struct.point, %struct.point }
%struct.obj_state_s = type { ptr, i32, %union.anon, i32, %struct.color_s, %struct.color_s, %struct.color_s, i32, double, i32, i32, double, ptr, double, double, double, ptr, ptr, ptr, ptr, ptr, ptr, ptr, ptr, ptr, ptr, ptr, ptr, ptr, ptr, ptr, ptr, ptr, i16, i32, i64, ptr, i64, ptr, ptr, i32, ptr, i32, ptr }
%union.anon = type { ptr }
%struct.color_s = type { %union.anon.0, i32 }
%union.anon.0 = type { [4 x double] }

@Depth = internal global i32 0, align 4
@.str.29 = private unnamed_addr constant [83 x i8] c"%d %d %d %.0f %d %d %d %d %d %.3f %d %.4f %.0f %.0f %.0f %.0f %.0f %.0f %.0f %.0f\0A\00", align 1

; Function Attrs: nounwind uwtable
define internal void @fig_line_style(ptr noundef %0, ptr noundef %1, ptr noundef %2) #0 {
  %4 = alloca ptr, align 8
  %5 = alloca ptr, align 8
  %6 = alloca ptr, align 8
  store ptr %0, ptr %4, align 8, !tbaa !31
  store ptr %1, ptr %5, align 8, !tbaa !84
  store ptr %2, ptr %6, align 8, !tbaa !86
  %7 = load ptr, ptr %4, align 8, !tbaa !31
  %8 = getelementptr inbounds nuw %struct.obj_state_s, ptr %7, i32 0, i32 9
  %9 = load i32, ptr %8, align 8, !tbaa !88
  switch i32 %9, label %17 [
    i32 1, label %10
    i32 2, label %13
    i32 3, label %16
  ]

10:                                               ; preds = %3
  %11 = load ptr, ptr %5, align 8, !tbaa !84
  store i32 1, ptr %11, align 4, !tbaa !40
  %12 = load ptr, ptr %6, align 8, !tbaa !86
  store double 1.000000e+01, ptr %12, align 8, !tbaa !48
  br label %20

13:                                               ; preds = %3
  %14 = load ptr, ptr %5, align 8, !tbaa !84
  store i32 2, ptr %14, align 4, !tbaa !40
  %15 = load ptr, ptr %6, align 8, !tbaa !86
  store double 1.000000e+01, ptr %15, align 8, !tbaa !48
  br label %20

16:                                               ; preds = %3
  br label %17

17:                                               ; preds = %3, %16
  %18 = load ptr, ptr %5, align 8, !tbaa !84
  store i32 0, ptr %18, align 4, !tbaa !40
  %19 = load ptr, ptr %6, align 8, !tbaa !86
  store double 0.000000e+00, ptr %19, align 8, !tbaa !48
  br label %20

20:                                               ; preds = %17, %13, %10
  ret void
}

; Function Attrs: nounwind uwtable
define internal void @fig_ellipse(ptr noundef %0, ptr noundef %1, i32 noundef %2) #0 {
  %4 = alloca ptr, align 8
  %5 = alloca ptr, align 8
  %6 = alloca i32, align 4
  %7 = alloca ptr, align 8
  %8 = alloca i32, align 4
  %9 = alloca i32, align 4
  %10 = alloca i32, align 4
  %11 = alloca double, align 8
  %12 = alloca i32, align 4
  %13 = alloca i32, align 4
  %14 = alloca i32, align 4
  %15 = alloca i32, align 4
  %16 = alloca i32, align 4
  %17 = alloca double, align 8
  %18 = alloca i32, align 4
  %19 = alloca double, align 8
  %20 = alloca double, align 8
  %21 = alloca double, align 8
  %22 = alloca double, align 8
  %23 = alloca double, align 8
  %24 = alloca double, align 8
  %25 = alloca double, align 8
  %26 = alloca double, align 8
  %27 = alloca double, align 8
  store ptr %0, ptr %4, align 8, !tbaa !3
  store ptr %1, ptr %5, align 8, !tbaa !69
  store i32 %2, ptr %6, align 4, !tbaa !40
  call void @llvm.lifetime.start.p0(i64 8, ptr %7) #14
  %28 = load ptr, ptr %4, align 8, !tbaa !3
  %29 = getelementptr inbounds nuw %struct.GVJ_s, ptr %28, i32 0, i32 4
  %30 = load ptr, ptr %29, align 8, !tbaa !8
  store ptr %30, ptr %7, align 8, !tbaa !31
  call void @llvm.lifetime.start.p0(i64 4, ptr %8) #14
  store i32 1, ptr %8, align 4, !tbaa !40
  call void @llvm.lifetime.start.p0(i64 4, ptr %9) #14
  store i32 1, ptr %9, align 4, !tbaa !40
  call void @llvm.lifetime.start.p0(i64 4, ptr %10) #14
  call void @llvm.lifetime.start.p0(i64 8, ptr %11) #14
  %31 = load ptr, ptr %7, align 8, !tbaa !31
  %32 = getelementptr inbounds nuw %struct.obj_state_s, ptr %31, i32 0, i32 11
  %33 = load double, ptr %32, align 8, !tbaa !71
  %34 = call double @llvm.round.f64(double %33)
  store double %34, ptr %11, align 8, !tbaa !48
  call void @llvm.lifetime.start.p0(i64 4, ptr %12) #14
  %35 = load ptr, ptr %7, align 8, !tbaa !31
  %36 = getelementptr inbounds nuw %struct.obj_state_s, ptr %35, i32 0, i32 4
  %37 = getelementptr inbounds nuw %struct.color_s, ptr %36, i32 0, i32 0
  %38 = load i32, ptr %37, align 8, !tbaa !37
  store i32 %38, ptr %12, align 4, !tbaa !40
  call void @llvm.lifetime.start.p0(i64 4, ptr %13) #14
  %39 = load ptr, ptr %7, align 8, !tbaa !31
  %40 = getelementptr inbounds nuw %struct.obj_state_s, ptr %39, i32 0, i32 5
  %41 = getelementptr inbounds nuw %struct.color_s, ptr %40, i32 0, i32 0
  %42 = load i32, ptr %41, align 8, !tbaa !37
  store i32 %42, ptr %13, align 4, !tbaa !40
  call void @llvm.lifetime.start.p0(i64 4, ptr %14) #14
  %43 = load i32, ptr @Depth, align 4, !tbaa !40
  store i32 %43, ptr %14, align 4, !tbaa !40
  call void @llvm.lifetime.start.p0(i64 4, ptr %15) #14
  store i32 0, ptr %15, align 4, !tbaa !40
  call void @llvm.lifetime.start.p0(i64 4, ptr %16) #14
  %44 = load i32, ptr %6, align 4, !tbaa !40
  %45 = icmp ne i32 %44, 0
  %46 = select i1 %45, i32 20, i32 -1
  store i32 %46, ptr %16, align 4, !tbaa !40
  call void @llvm.lifetime.start.p0(i64 8, ptr %17) #14
  call void @llvm.lifetime.start.p0(i64 4, ptr %18) #14
  store i32 0, ptr %18, align 4, !tbaa !40
  call void @llvm.lifetime.start.p0(i64 8, ptr %19) #14
  store double 0.000000e+00, ptr %19, align 8, !tbaa !48
  call void @llvm.lifetime.start.p0(i64 8, ptr %20) #14
  call void @llvm.lifetime.start.p0(i64 8, ptr %21) #14
  %47 = load ptr, ptr %7, align 8, !tbaa !31
  call void @fig_line_style(ptr noundef %47, ptr noundef %10, ptr noundef %17)
  call void @llvm.lifetime.start.p0(i64 8, ptr %22) #14
  %48 = load ptr, ptr %5, align 8, !tbaa !69
  %49 = getelementptr inbounds %struct.pointf_s, ptr %48, i64 0
  %50 = getelementptr inbounds nuw %struct.pointf_s, ptr %49, i32 0, i32 0
  %51 = load double, ptr %50, align 8, !tbaa !57
  %52 = call double @llvm.round.f64(double %51)
  store double %52, ptr %20, align 8, !tbaa !48
  store double %52, ptr %22, align 8, !tbaa !48
  call void @llvm.lifetime.start.p0(i64 8, ptr %23) #14
  %53 = load ptr, ptr %5, align 8, !tbaa !69
  %54 = getelementptr inbounds %struct.pointf_s, ptr %53, i64 0
  %55 = getelementptr inbounds nuw %struct.pointf_s, ptr %54, i32 0, i32 1
  %56 = load double, ptr %55, align 8, !tbaa !58
  %57 = call double @llvm.round.f64(double %56)
  store double %57, ptr %21, align 8, !tbaa !48
  store double %57, ptr %23, align 8, !tbaa !48
  call void @llvm.lifetime.start.p0(i64 8, ptr %24) #14
  %58 = load ptr, ptr %5, align 8, !tbaa !69
  %59 = getelementptr inbounds %struct.pointf_s, ptr %58, i64 1
  %60 = getelementptr inbounds nuw %struct.pointf_s, ptr %59, i32 0, i32 0
  %61 = load double, ptr %60, align 8, !tbaa !57
  %62 = load ptr, ptr %5, align 8, !tbaa !69
  %63 = getelementptr inbounds %struct.pointf_s, ptr %62, i64 0
  %64 = getelementptr inbounds nuw %struct.pointf_s, ptr %63, i32 0, i32 0
  %65 = load double, ptr %64, align 8, !tbaa !57
  %66 = fsub double %61, %65
  %67 = call double @llvm.round.f64(double %66)
  store double %67, ptr %24, align 8, !tbaa !48
  call void @llvm.lifetime.start.p0(i64 8, ptr %25) #14
  %68 = load ptr, ptr %5, align 8, !tbaa !69
  %69 = getelementptr inbounds %struct.pointf_s, ptr %68, i64 1
  %70 = getelementptr inbounds nuw %struct.pointf_s, ptr %69, i32 0, i32 1
  %71 = load double, ptr %70, align 8, !tbaa !58
  %72 = load ptr, ptr %5, align 8, !tbaa !69
  %73 = getelementptr inbounds %struct.pointf_s, ptr %72, i64 0
  %74 = getelementptr inbounds nuw %struct.pointf_s, ptr %73, i32 0, i32 1
  %75 = load double, ptr %74, align 8, !tbaa !58
  %76 = fsub double %71, %75
  %77 = call double @llvm.round.f64(double %76)
  store double %77, ptr %25, align 8, !tbaa !48
  call void @llvm.lifetime.start.p0(i64 8, ptr %26) #14
  %78 = load ptr, ptr %5, align 8, !tbaa !69
  %79 = getelementptr inbounds %struct.pointf_s, ptr %78, i64 1
  %80 = getelementptr inbounds nuw %struct.pointf_s, ptr %79, i32 0, i32 0
  %81 = load double, ptr %80, align 8, !tbaa !57
  %82 = call double @llvm.round.f64(double %81)
  store double %82, ptr %26, align 8, !tbaa !48
  call void @llvm.lifetime.start.p0(i64 8, ptr %27) #14
  %83 = load ptr, ptr %5, align 8, !tbaa !69
  %84 = getelementptr inbounds %struct.pointf_s, ptr %83, i64 1
  %85 = getelementptr inbounds nuw %struct.pointf_s, ptr %84, i32 0, i32 1
  %86 = load double, ptr %85, align 8, !tbaa !58
  %87 = call double @llvm.round.f64(double %86)
  store double %87, ptr %27, align 8, !tbaa !48
  %88 = load ptr, ptr %4, align 8, !tbaa !3
  %89 = load i32, ptr %8, align 4, !tbaa !40
  %90 = load i32, ptr %9, align 4, !tbaa !40
  %91 = load i32, ptr %10, align 4, !tbaa !40
  %92 = load double, ptr %11, align 8, !tbaa !48
  %93 = load i32, ptr %12, align 4, !tbaa !40
  %94 = load i32, ptr %13, align 4, !tbaa !40
  %95 = load i32, ptr %14, align 4, !tbaa !40
  %96 = load i32, ptr %15, align 4, !tbaa !40
  %97 = load i32, ptr %16, align 4, !tbaa !40
  %98 = load double, ptr %17, align 8, !tbaa !48
  %99 = load i32, ptr %18, align 4, !tbaa !40
  %100 = load double, ptr %19, align 8, !tbaa !48
  %101 = load double, ptr %20, align 8, !tbaa !48
  %102 = load double, ptr %21, align 8, !tbaa !48
  %103 = load double, ptr %24, align 8, !tbaa !48
  %104 = load double, ptr %25, align 8, !tbaa !48
  %105 = load double, ptr %22, align 8, !tbaa !48
  %106 = load double, ptr %23, align 8, !tbaa !48
  %107 = load double, ptr %26, align 8, !tbaa !48
  %108 = load double, ptr %27, align 8, !tbaa !48
  call void (ptr, ptr, ...) @gvprintf(ptr noundef %88, ptr noundef @.str.29, i32 noundef %89, i32 noundef %90, i32 noundef %91, double noundef %92, i32 noundef %93, i32 noundef %94, i32 noundef %95, i32 noundef %96, i32 noundef %97, double noundef %98, i32 noundef %99, double noundef %100, double noundef %101, double noundef %102, double noundef %103, double noundef %104, double noundef %105, double noundef %106, double noundef %107, double noundef %108)
  call void @llvm.lifetime.end.p0(i64 8, ptr %27) #14
  call void @llvm.lifetime.end.p0(i64 8, ptr %26) #14
  call void @llvm.lifetime.end.p0(i64 8, ptr %25) #14
  call void @llvm.lifetime.end.p0(i64 8, ptr %24) #14
  call void @llvm.lifetime.end.p0(i64 8, ptr %23) #14
  call void @llvm.lifetime.end.p0(i64 8, ptr %22) #14
  call void @llvm.lifetime.end.p0(i64 8, ptr %21) #14
  call void @llvm.lifetime.end.p0(i64 8, ptr %20) #14
  call void @llvm.lifetime.end.p0(i64 8, ptr %19) #14
  call void @llvm.lifetime.end.p0(i64 4, ptr %18) #14
  call void @llvm.lifetime.end.p0(i64 8, ptr %17) #14
  call void @llvm.lifetime.end.p0(i64 4, ptr %16) #14
  call void @llvm.lifetime.end.p0(i64 4, ptr %15) #14
  call void @llvm.lifetime.end.p0(i64 4, ptr %14) #14
  call void @llvm.lifetime.end.p0(i64 4, ptr %13) #14
  call void @llvm.lifetime.end.p0(i64 4, ptr %12) #14
  call void @llvm.lifetime.end.p0(i64 8, ptr %11) #14
  call void @llvm.lifetime.end.p0(i64 4, ptr %10) #14
  call void @llvm.lifetime.end.p0(i64 4, ptr %9) #14
  call void @llvm.lifetime.end.p0(i64 4, ptr %8) #14
  call void @llvm.lifetime.end.p0(i64 8, ptr %7) #14
  ret void
}