; Function Attrs: nounwind uwtable
define internal void @fig_ellipse(ptr noundef %0, ptr noundef readonly captures(none) %1, i32 noundef %2) #0 {
fig_line_style.exit:
  %3 = getelementptr inbounds nuw i8, ptr %0, i64 32
  %4 = load ptr, ptr %3, align 8, !tbaa !3
  %5 = getelementptr inbounds nuw i8, ptr %4, i64 176
  %6 = load double, ptr %5, align 8, !tbaa !59
  %7 = getelementptr inbounds nuw i8, ptr %4, i64 32
  %8 = load i32, ptr %7, align 8, !tbaa !35
  %9 = getelementptr inbounds nuw i8, ptr %4, i64 72
  %10 = load i32, ptr %9, align 8, !tbaa !35
  %11 = load i32, ptr @Depth, align 4, !tbaa !38
  %12 = getelementptr i8, ptr %4, i64 168
  %.val = load i32, ptr %12, align 8, !tbaa !63
  %.val.off = add i32 %.val, -1
  %switch = icmp ult i32 %.val.off, 2
  %.sink1.i = select i1 %switch, i32 %.val, i32 0
  %.sink.i = select i1 %switch, double 1.000000e+01, double 0.000000e+00
  %.not = icmp eq i32 %2, 0
  %13 = select i1 %.not, i32 -1, i32 20
  %14 = tail call double @llvm.round.f64(double %6)
  %15 = load double, ptr %1, align 8, !tbaa !64
  %16 = tail call double @llvm.round.f64(double %15)
  %17 = getelementptr inbounds nuw i8, ptr %1, i64 8
  %18 = load double, ptr %17, align 8, !tbaa !65
  %19 = tail call double @llvm.round.f64(double %18)
  %20 = getelementptr inbounds nuw i8, ptr %1, i64 16
  %21 = load double, ptr %20, align 8, !tbaa !64
  %22 = fsub double %21, %15
  %23 = tail call double @llvm.round.f64(double %22)
  %24 = getelementptr inbounds nuw i8, ptr %1, i64 24
  %25 = load double, ptr %24, align 8, !tbaa !65
  %26 = fsub double %25, %18
  %27 = tail call double @llvm.round.f64(double %26)
  %28 = tail call double @llvm.round.f64(double %21)
  %29 = tail call double @llvm.round.f64(double %25)
  tail call void (ptr, ptr, ...) @gvprintf(ptr noundef nonnull %0, ptr noundef nonnull @.str.29, i32 noundef 1, i32 noundef 1, i32 noundef %.sink1.i, double noundef %14, i32 noundef %8, i32 noundef %10, i32 noundef %11, i32 noundef 0, i32 noundef %13, double noundef %.sink.i, i32 noundef 0, double noundef 0.000000e+00, double noundef %16, double noundef %19, double noundef %23, double noundef %27, double noundef %16, double noundef %19, double noundef %28, double noundef %29) #18
  ret void
}